; Function Attrs: mustprogress nofree norecurse nounwind willreturn uwtable
define float @ma_node_get_output_bus_volume(ptr noundef readonly captures(address_is_null) %0, i32 noundef %1) local_unnamed_addr #59 {
  %3 = icmp eq ptr %0, null
  br i1 %3, label %13, label %ma_node_get_output_bus_count.exit

ma_node_get_output_bus_count.exit:                ; preds = %2
  %4 = getelementptr inbounds nuw i8, ptr %0, i64 68
  %5 = load i32, ptr %4, align 4, !tbaa !1670
  %.not = icmp ult i32 %1, %5
  br i1 %.not, label %6, label %13

6:                                                ; preds = %ma_node_get_output_bus_count.exit
  %7 = getelementptr inbounds nuw i8, ptr %0, i64 80
  %8 = load ptr, ptr %7, align 8, !tbaa !1677
  %9 = zext i32 %1 to i64
  %10 = getelementptr inbounds nuw %struct.ma_node_output_bus, ptr %8, i64 %9, i32 8
  %11 = load atomic volatile i32, ptr %10 seq_cst, align 4
  %12 = bitcast i32 %11 to float
  br label %13

13:                                               ; preds = %ma_node_get_output_bus_count.exit, %2, %6
  %.0 = phi float [ %12, %6 ], [ 0.000000e+00, %2 ], [ 0.000000e+00, %ma_node_get_output_bus_count.exit ]
  ret float %.0
}